CCS PCM C Compiler, Version 4.114, 93460303               23-feb.-15 21:56

               Filename: C:\Users\ivan-_000\Documents\PIC\Pic C\P9\mtz628c2.lst

               ROM used: 468 words (23%)
                         Largest free fragment is 1580
               RAM used: 13 (6%) at main() level
                         15 (7%) worst case
               Stack:    2 locations

*
0000:  MOVLW  01
0001:  MOVWF  0A
0002:  GOTO   159
0003:  NOP
.................... #include <16f628a.h> 
.................... //////// Standard Header file for the PIC16F628A device //////////////// 
.................... #device PIC16F628A 
.................... #list 
....................  
....................  
.................... #fuses HS 
.................... #fuses NOWDT 
.................... #fuses NOMCLR 
.................... #fuses NOPUT 
.................... #fuses NOLVP 
.................... #fuses NOPROTECT 
.................... #fuses NOCPD 
.................... #fuses NOBROWNOUT 
.................... #use delay(clock=20000000) 
010B:  MOVLW  27
010C:  MOVWF  04
010D:  BCF    03.7
010E:  MOVF   00,W
010F:  BTFSC  03.2
0110:  GOTO   11E
0111:  MOVLW  06
0112:  MOVWF  78
0113:  CLRF   77
0114:  DECFSZ 77,F
0115:  GOTO   114
0116:  DECFSZ 78,F
0117:  GOTO   113
0118:  MOVLW  7B
0119:  MOVWF  77
011A:  DECFSZ 77,F
011B:  GOTO   11A
011C:  DECFSZ 00,F
011D:  GOTO   111
011E:  RETURN
....................  
.................... //#BYTE TRISA=0x85 
.................... //#BYTE PORTA=0x05 
.................... #BYTE TRISB=0x86 
.................... #BYTE PORTB=0x06 
.................... #use fast_io(a) 
.................... //#use standard_io(a) 
....................  
.................... ///////////////////////////////////////////////////////////////////////////////////// 
.................... //Se requiere de estas lineas para uso de lcd serial                               // 
.................... #use rs232(baud=9600, xmit=PIN_A2, parity=n, bits=8, stop=2,  force_sw, stream=lcd)// 
*
0123:  BCF    05.2
0124:  MOVLW  08
0125:  MOVWF  78
0126:  GOTO   127
0127:  NOP
0128:  BSF    78.7
0129:  GOTO   13F
012A:  BCF    78.7
012B:  RRF    29,F
012C:  BTFSC  03.0
012D:  BSF    05.2
012E:  BTFSS  03.0
012F:  BCF    05.2
0130:  BSF    78.6
0131:  GOTO   13F
0132:  BCF    78.6
0133:  DECFSZ 78,F
0134:  GOTO   12B
0135:  GOTO   136
0136:  NOP
0137:  BSF    05.2
0138:  MOVLW  01
0139:  MOVWF  78
013A:  BSF    78.4
013B:  GOTO   13F
013C:  BCF    78.4
013D:  DECFSZ 78,F
013E:  GOTO   13A
013F:  MOVLW  A7
0140:  MOVWF  04
0141:  DECFSZ 04,F
0142:  GOTO   141
0143:  GOTO   144
0144:  BTFSC  78.7
0145:  GOTO   12A
0146:  BTFSC  78.6
0147:  GOTO   132
0148:  BTFSC  78.4
0149:  GOTO   13C
014A:  RETURN
.................... #include <lcd_serial.c>                                                            // 
.................... /* 
.................... Uso de una LCD serial conectda a un sólo pin del microcontrolador. 
.................... Ivan Moreno 
....................  
.................... Incluir en el programa principal: 
....................  
....................  
.................... ///////////////////////////////////////////////////////////////////////////////////// 
.................... //Se requiere de estas lineas para uso de lcd serial                                        // 
.................... #use rs232(baud=9600, xmit=PIN_A0, parity=n, bits=8, stop=2,  force_sw, stream=lcd)// 
.................... #include <lcd_serial.c>                                                            // 
.................... ///////////////////////////////////////////////////////////////////////////////////// 
....................  
....................  
.................... Funciones: 
....................  
.................... lcd_serial_init(); 
....................       Sirve para inicial el lcd  
.................... lcd_serial_gotoxy(posicion en x,posicion en y); 
....................       x= posicion en x no mayor a 16 
....................       y= posicion en y no mayor a 2 
.................... lcd_clear(); 
....................       Sirve para borrar la pantalla lcd 
.................... */ 
.................... void lcd_serial_init() 
.................... { 
....................    delay_ms(40); 
*
011F:  MOVLW  28
0120:  MOVWF  27
0121:  CALL   10B
.................... } 
0122:  GOTO   164 (RETURN)
.................... void lcd_serial_gotoxy(int x,int y) 
.................... { 
....................    fputc('°',lcd); 
*
014F:  MOVLW  B0
0150:  MOVWF  29
0151:  CALL   123
.................... //   delay_ms(1); 
....................    fputc(x,lcd); 
0152:  MOVF   27,W
0153:  MOVWF  29
0154:  CALL   123
.................... //   delay_ms(1); 
....................    fputc(y,lcd); 
0155:  MOVF   28,W
0156:  MOVWF  29
0157:  CALL   123
.................... //   delay_ms(1); 
.................... } 
0158:  GOTO   18B (RETURN)
.................... void lcd_clear() 
.................... { 
....................    fputc('ñ',lcd); 
*
014B:  MOVLW  F1
014C:  MOVWF  29
014D:  CALL   123
.................... //   delay_ms(1); 
.................... } 
014E:  RETURN
....................  
.................... ///////////////////////////////////////////////////////////////////////////////////// 
.................... //#use rs232(baud=9600, xmit=PIN_A3, rcv=pin_A4, parity=n, bits=8, stop=2,  force_sw, stream=pc) 
.................... /* 
.................... 0,0,0b11111110,0b00001001,0b00001001,0b00001001,0b00001001,0b11111110,  //Letra A 
.................... 0,0,0,0b01111110,0b10010001,0b10010001,0b10010001,0b11111111, //Letra B 
.................... 0,0,0,0b10000001,0b10000001,0b10000001,0b10000001,0b01111110, //Letra C 
.................... 0,0,0,0b01111110,0b10000001,0b10000001,0b10000001,0b11111111, //Letra D 
.................... 0,0,0,0b10010001,0b10010001,0b10010001,0b10010001,0b11111111, //Letra E 
.................... 0,0,0,0b00010001,0b00010001,0b00010001,0b00010001,0b11111111, //Letra F 
.................... 0,0,0,0b01100001,0b10010001,0b10010001,0b10000001,0b01111110, //Letra G 
.................... 0,0,0,0b11111111,0b00010000,0b00010000,0b00010000,0b11111111, //Letra H 
.................... 0,0,0,0b10000001,0b10000001,0b11111111,0b10000001,0b10000001, //Letra I 
.................... 0,0,0,0b01111111,0b10000000,0b10000000,0b10000000,0b01000000, //Letra J 
.................... 0,0,0,0b10000001,0b01000010,0b00100100,0b00011000,0b11111111, //Letra K 
.................... 0,0,0,0b10000000,0b10000000,0b10000000,0b10000000,0b11111111, //Letra L 
.................... 0,0b11111111,0b00000010,0b00000100,0b00001000,0b00000100,0b00000010,0b11111111, //Letra M 
.................... 0,0,0b11111111,0b01000000,0b00100000,0b00010000,0b00001000,0b11111111, //Letra N 
.................... 0,0,0b01111110,0b10000001,0b10000001,0b10000001,0b10000001,0b01111110, //Letra O 
.................... 0,0,0,0b00001110,0b00010001,0b00010001,0b00010001,0b11111111, //Letra P 
.................... 0,0,0b10111110,0b01000001,0b01100001,0b01000001,0b01000001,0b00111110, //Letra Q 
.................... 0,0,0,0b10001110,0b01010001,0b00110001,0b00010001,0b11111111, //Letra R 
.................... 0,0,0,0b01100001,0b10010001,0b10010001,0b10010001,0b10001110, //Letra S 
.................... 0,0,0,0b00000001,0b00000001,0b11111111,0b00000001,0b00000001, //Letra T 
.................... 0,0,0,0b01111111,0b10000000,0b10000000,0b10000000,0b01111111, //Letra U 
.................... 0,0,0,0b00111111,0b01000000,0b10000000,0b01000000,0b00111111, //Letra V 
.................... 0,0,0,0b01111111,0b10000000,0b01000000,0b10000000,0b01111111, //Letra W 
.................... 0,0,0,0b11000011,0b00100100,0b00011000,0b00100100,0b11000011, //Letra X 
.................... 0,0,0,0b00000011,0b00000100,0b11111000,0b00000100,0b00000011, //Letra Y 
.................... 0b10000001,0b10000011,0b10000101,0b10001001,0b10010001,0b10100001,0b11000001,0b10000001, //Letra Z 
.................... 0,0,0,0b10000000,0b10000000,0b11111111,0b10000010,0b10000100, //Numero 1 
.................... 0,0,0,0b10000110,0b10001001,0b10010001,0b10100001,0b11000010, //Numero 2 
.................... 0,0,0,0b01101110,0b10010001,0b10010001,0b10010001,0b01000010, //Numero 3 
.................... 0,0,0,0b11111111,0b00010010,0b00010100,0b00011000,0b00010000, //Numero 4 
.................... 0,0,0,0b01100001,0b10010001,0b10010001,0b10010001,0b10011111, //Numero 5 
.................... 0,0,0,0b01100001,0b10010001,0b10010001,0b10010001,0b01111110, //Numero 6 
.................... 0,0,0,0b11111111,0b00010001,0b00010001,0b00010001,0b00000001, //Numero 7 
.................... 0,0,0,0b01101110,0b10010001,0b10010001,0b10010001,0b01101110, //Numero 8 
.................... 0,0,0,0b11111110,0b00010001,0b00010001,0b00010001,0b00001110, //Numero 9 
.................... 0,0,0,0b01111110,0b10001001,0b10010001,0b10100001,0b01111110, //Numero 0 
.................... 0,0,0,0,0b00010000,0b00010000,0b00010000,0, //Gion (-)  
.................... 0,0,0,0, //Espacio 
.................... */ 
.................... char const sec[]= 
.................... { 
.................... 0,0,0,0,0,0,0,0, //Espacio 8 -8 
.................... 0,0b11111110,0b00001001,0b00001001,0b00001001,0b00001001,0b11111110,  //Letra A -7 
.................... 0,0b10000001,0b10000001,0b10000001,0b10000001,0b01111110, //Letra C -6 
.................... 0,0b10010001,0b10010001,0b10010001,0b10010001,0b11111111, //Letra E -6 
.................... 0,0b00000001,0b00000001,0b11111111,0b00000001,0b00000001, //Letra T -6 
.................... 0,0b10000001,0b10000011,0b10000101,0b10001001,0b10010001,0b10100001,0b11000001,0b10000001, //Letra Z -9 
.................... 0,0b11111110,0b00001001,0b00001001,0b00001001,0b00001001,0b11111110,  //Letra A -7 
.................... 0,0,0,0, //Espacio -4 
.................... 0,0b01111110,0b10000001,0b10000001,0b10000001,0b11111111, //Letra D -6 
.................... 0,0b10000001,0b10000001,0b10000001,0b10000001,0b01111110, //Letra C -6 
.................... 0,0,0b00010000,0b00010000,0b00010000,0, //Gion (-) -4 
.................... 0,0b11111110,0b00001001,0b00001001,0b00001001,0b00001001,0b11111110, //Letra A -7 
.................... 0,0b01111111,0b10000000,0b10000000,0b10000000,0b01111111, //Letra U -6 
.................... 0,0b01100001,0b10010001,0b10010001,0b10000001,0b01111110, //Letra G -6 
.................... 0,0b11111110,0b00001001,0b00001001,0b00001001,0b00001001,0b11111110, //Letra A -7 
.................... 0,0,0,0, //Espacio -4 
.................... 0,0b10010001,0b10010001,0b10010001,0b10010001,0b11111111, //Letra E -6 
.................... 0,0b01111110,0b10000001,0b10000001,0b10000001,0b11111111, //Letra D -6 
.................... 0,0,0,0, //Espacio -4 
.................... 0,0b01111110,0b10000001,0b10000001,0b10000001,0b10000001,0b01111110, //Letra O -7 
.................... 0,0b01111111,0b10000000,0b10000000,0b10000000,0b01000000, //Letra J -6 
.................... 0,0b01111110,0b10000001,0b10000001,0b10000001,0b10000001,0b01111110, //Letra O -7 
.................... 0,0,0,0, //Espacio -4 
.................... 0,0b01100001,0b10010001,0b10010001,0b10010001,0b10001110, //Letra S -6 
.................... 0,0b01100001,0b10010001,0b10010001,0b10010001,0b10001110, //Letra S -6 
.................... 0,0b10010001,0b10010001,0b10010001,0b10010001,0b11111111, //Letra E -6 
.................... 0,0b10001110,0b01010001,0b00110001,0b00010001,0b11111111, //Letra R -6 
.................... 0,0b00001110,0b00010001,0b00010001,0b00010001,0b11111111, //Letra P -6 
.................... 0,0b11000011,0b00100100,0b00011000,0b00100100,0b11000011, //Letra X -6 
.................... 0,0b10010001,0b10010001,0b10010001,0b10010001,0b11111111, //Letra E -6 
.................... 0,0,0,0, //Espacio -4 
.................... 0,0b01101110,0b10010001,0b10010001,0b10010001,0b01000010, //Numero 3 -6 
.................... 0,0b00010000,0b00010000,0b00010000, //Gion (-) -4 
.................... 0,0b10001110,0b01010001,0b00110001,0b00010001,0b11111111, //Letra R -6 
.................... 0,0b00000001,0b00000001,0b11111111,0b00000001,0b00000001, //Letra T -6 
.................... 0,0,0,0,0,0,0,0, //Espacio 8 -8 
.................... //Posicion 220 
.................... }; 
....................    int time=0; 
....................    long b=0,cs,c; 
....................     
.................... void main() 
.................... { 
*
0159:  CLRF   04
015A:  BCF    03.7
015B:  MOVLW  1F
015C:  ANDWF  03,F
015D:  BSF    05.2
015E:  CLRF   20
015F:  CLRF   22
0160:  CLRF   21
0161:  MOVLW  07
0162:  MOVWF  1F
....................    lcd_serial_init();  
0163:  GOTO   11F
....................    lcd_clear(); 
0164:  CALL   14B
....................    Trisb=0; 
0165:  BSF    03.5
0166:  CLRF   06
....................    set_Tris_a(0b00010000); 
0167:  MOVLW  10
0168:  TRIS   5
....................    portb=0; 
0169:  BCF    03.5
016A:  CLRF   06
....................    for(time=0;time<10;time++) 
016B:  CLRF   20
016C:  MOVF   20,W
016D:  SUBLW  09
016E:  BTFSS  03.0
016F:  GOTO   174
....................    { 
....................       output_high(pin_a0);//Porta=1; 
0170:  BSF    05.0
....................       output_low(pin_a0);//Porta=0; 
0171:  BCF    05.0
....................    } 
0172:  INCF   20,F
0173:  GOTO   16C
....................    
....................    c=212; 
0174:  CLRF   26
0175:  MOVLW  D4
0176:  MOVWF  25
....................    cs=220; 
0177:  CLRF   24
0178:  MOVLW  DC
0179:  MOVWF  23
....................    lcd_clear(); 
017A:  CALL   14B
....................    fprintf(lcd,"   Matriz 8x8"); 
017B:  CLRF   27
017C:  MOVF   27,W
017D:  CALL   0E1
017E:  INCF   27,F
017F:  MOVWF  77
0180:  MOVWF  29
0181:  CALL   123
0182:  MOVLW  0D
0183:  SUBWF  27,W
0184:  BTFSS  03.2
0185:  GOTO   17C
....................    lcd_serial_gotoxy(1,2); 
0186:  MOVLW  01
0187:  MOVWF  27
0188:  MOVLW  02
0189:  MOVWF  28
018A:  GOTO   14F
....................    fprintf(lcd,"Hecho por CH-INC"); 
018B:  CLRF   27
018C:  MOVF   27,W
018D:  CALL   0F3
018E:  INCF   27,F
018F:  MOVWF  77
0190:  MOVWF  29
0191:  CALL   123
0192:  MOVLW  10
0193:  SUBWF  27,W
0194:  BTFSS  03.2
0195:  GOTO   18C
....................    //fputs("Matriz 8x8",pc); 
....................    while(true) 
....................    { 
....................       for(time=0;time<8;time++) 
0196:  CLRF   20
0197:  MOVF   20,W
0198:  SUBLW  07
0199:  BTFSS  03.0
019A:  GOTO   1BE
....................       { 
....................          //Porta=2; Porta=3; Porta=0; 
....................          output_high(pin_a1); 
019B:  BSF    05.1
....................          output_high(pin_a0); 
019C:  BSF    05.0
....................          output_low(pin_a1); 
019D:  BCF    05.1
....................          output_low(pin_a0); 
019E:  BCF    05.0
....................          for(b=c;b<cs;b++) 
019F:  MOVF   26,W
01A0:  MOVWF  22
01A1:  MOVF   25,W
01A2:  MOVWF  21
01A3:  MOVF   22,W
01A4:  SUBWF  24,W
01A5:  BTFSS  03.0
01A6:  GOTO   1BC
01A7:  BTFSS  03.2
01A8:  GOTO   1AD
01A9:  MOVF   23,W
01AA:  SUBWF  21,W
01AB:  BTFSC  03.0
01AC:  GOTO   1BC
....................          { 
....................             Portb=sec[b]; 
01AD:  MOVF   22,W
01AE:  MOVWF  7A
01AF:  MOVF   21,W
01B0:  CALL   004
01B1:  MOVWF  78
01B2:  MOVWF  06
....................             delay_ms(2); 
01B3:  MOVLW  02
01B4:  MOVWF  27
01B5:  CALL   10B
....................             output_high(pin_a0);  
01B6:  BSF    05.0
....................             output_low(pin_a0); 
01B7:  BCF    05.0
....................          } 
01B8:  INCF   21,F
01B9:  BTFSC  03.2
01BA:  INCF   22,F
01BB:  GOTO   1A3
....................       } 
01BC:  INCF   20,F
01BD:  GOTO   197
....................    cs--; 
01BE:  MOVF   23,W
01BF:  BTFSC  03.2
01C0:  DECF   24,F
01C1:  DECF   23,F
....................    c--; 
01C2:  MOVF   25,W
01C3:  BTFSC  03.2
01C4:  DECF   26,F
01C5:  DECF   25,F
....................    if(cs==0){cs=220; c=212;} 
01C6:  MOVF   23,F
01C7:  BTFSS  03.2
01C8:  GOTO   1D2
01C9:  MOVF   24,F
01CA:  BTFSS  03.2
01CB:  GOTO   1D2
01CC:  CLRF   24
01CD:  MOVLW  DC
01CE:  MOVWF  23
01CF:  CLRF   26
01D0:  MOVLW  D4
01D1:  MOVWF  25
....................    }   
01D2:  GOTO   196
.................... } 
....................  
01D3:  SLEEP

Configuration Fuses:
   Word  1: 3F0A   NOWDT NOPUT HS NOMCLR NOBROWNOUT NOLVP NOCPD NOPROTECT
