CCS PCM C Compiler, Version 4.130, 59972               19-nov.-14 12:15

               Filename: C:\Users\Ivan-ua\Documents\PIC\Pic C\P9\mtz628c1.lst

               ROM used: 1157 words (56%)
                         Largest free fragment is 891
               RAM used: 13 (6%) at main() level
                         14 (6%) worst case
               Stack:    1 locations

*
0000:  MOVLW  04
0001:  MOVWF  0A
0002:  GOTO   421
0003:  NOP
.................... #include <16f628a.h> 
.................... //////// Standard Header file for the PIC16F628A device //////////////// 
.................... #device PIC16F628A 
.................... #list 
....................  
....................  
.................... #fuses HS 
.................... #fuses NOWDT 
.................... #fuses NOMCLR 
.................... #fuses NOPUT 
.................... #fuses NOLVP 
.................... #fuses NOPROTECT 
.................... #fuses NOCPD 
.................... #fuses NOBROWNOUT 
.................... #use delay(clock=20000000) 
040D:  MOVLW  27
040E:  MOVWF  04
040F:  BCF    03.7
0410:  MOVF   00,W
0411:  BTFSC  03.2
0412:  GOTO   420
0413:  MOVLW  06
0414:  MOVWF  78
0415:  CLRF   77
0416:  DECFSZ 77,F
0417:  GOTO   416
0418:  DECFSZ 78,F
0419:  GOTO   415
041A:  MOVLW  7B
041B:  MOVWF  77
041C:  DECFSZ 77,F
041D:  GOTO   41C
041E:  DECFSZ 00,F
041F:  GOTO   413
0420:  RETURN
....................  
.................... #BYTE TRISA=0x85 
.................... #BYTE PORTA=0x05 
.................... #BYTE TRISB=0x86 
.................... #BYTE PORTB=0x06 
....................  
.................... char const sec[]= 
.................... { 
.................... 0b00000,0b00000+224,0b00000+64,0b00000+224,0b00000,0b00000+160,0b00000+224,0b00000,//8 
.................... 0b11111,0b00000+224,0b00000+64,0b00000+224,0b00000,0b00000+160,0b00000+224,0b00000,//16 
.................... 0b00100,0b11111+224,0b00000+64,0b00000+224,0b00000,0b00000+160,0b00000+224,0b00000,//24 
.................... 0b00100,0b00100+224,0b11111+64,0b00000+224,0b00000,0b00000+160,0b00000+224,0b00000,//32 
.................... 0b11111,0b00100+224,0b00100+64,0b11111+224,0b00000,0b00000+160,0b00000+224,0b00000,//40 
.................... 0b00000,0b11111+224,0b00100+64,0b00100+224,0b11111,0b00000+160,0b00000+224,0b00000,//48 
.................... 0b11111,0b00000+224,0b11111+64,0b00100+224,0b00100,0b11111+160,0b00000+224,0b00000,//56 
.................... 0b10101,0b11111+224,0b00000+64,0b11111+224,0b00100,0b00100+160,0b11111+224,0b00000,//64 
.................... 0b10101,0b10101+224,0b11111+64,0b00000+224,0b11111,0b00100+160,0b00100+224,0b11111,//72 
.................... 0b00000,0b10101+224,0b10101+64,0b11111+224,0b00000,0b11111+160,0b00100+224,0b00100,//80 
.................... 0b11111,0b00000+224,0b10101+64,0b10101+224,0b11111,0b00000+160,0b11111+224,0b00100,//88 
.................... 0b10001,0b11111+224,0b00000+64,0b10101+224,0b10101,0b11111+160,0b00000+224,0b11111,//96 
.................... 0b10001,0b10001+224,0b11111+64,0b00000+224,0b10101,0b10101+160,0b11111+224,0b00000,//104 
.................... 0b00000,0b10001+224,0b10001+64,0b01110+224,0b00000,0b10101+160,0b10101+224,0b11111,//112 
.................... 0b11111,0b00000+224,0b10001+64,0b10001+224,0b01110,0b00000+160,0b10101+224,0b10101,//120 
.................... 0b00100,0b11111+224,0b00000+64,0b10001+224,0b10001,0b01110+160,0b00000+224,0b10101,//128 
.................... 0b00100,0b00100+224,0b11111+64,0b00000+224,0b10001,0b10001+160,0b01110+224,0b00000,//136 
.................... 0b11111,0b00100+224,0b00100+64,0b11111+224,0b00000,0b10001+160,0b10001+224,0b01110,//144 
.................... 0b00000,0b11111+224,0b00100+64,0b00100+224,0b11111,0b00000+160,0b10001+224,0b10001,//152 
.................... 0b01110,0b00000+224,0b11111+64,0b00100+224,0b00100,0b11111+160,0b00000+224,0b10001,//160 
.................... 0b10001,0b01110+224,0b00000+64,0b11111+224,0b00100,0b00100+160,0b11111+224,0b00000,//168 
.................... 0b10001,0b10001+224,0b01110+64,0b00000+224,0b11111,0b00100+160,0b00100+224,0b11111,//176 
.................... 0b01110,0b10001+224,0b10001+64,0b01110+224,0b00000,0b11111+160,0b00100+224,0b00100,//184 
.................... 0b00000,0b01110+224,0b10001+64,0b10001+224,0b01110,0b00000+160,0b11111+224,0b00100,//192 
.................... 0b11111,0b00000+224,0b01110+64,0b10001+224,0b10001,0b01110+160,0b00000+224,0b11111,//200 
.................... 0b00101,0b11111+224,0b00000+64,0b01110+224,0b10001,0b10001+160,0b01110+224,0b00000,//208 
.................... 0b00111,0b00101+224,0b11111+64,0b00000+224,0b01110,0b10001+160,0b10001+224,0b01110,//216 
.................... 0b00000,0b00111+224,0b00101+64,0b11111+224,0b00000,0b01110+160,0b10001+224,0b10001,//224 
.................... 0b11100,0b00000+224,0b00111+64,0b00101+224,0b11111,0b00000+160,0b01110+224,0b10001,//232 
.................... 0b10100,0b11100+224,0b00000+64,0b00111+224,0b00101,0b11111+160,0b00000+224,0b01110,//240 
.................... 0b11100,0b10100+224,0b11100+64,0b00000+224,0b00111,0b00101+160,0b11111+224,0b00000,//248 
.................... 0b00000,0b11100+224,0b10100+64,0b11100+224,0b00000,0b00111+160,0b00101+224,0b11111,//256 
.................... 0b11100,0b00000+224,0b11100+64,0b10100+224,0b11100,0b00000+160,0b00111+224,0b00101,//264 
.................... 0b00100,0b11100+224,0b00000+64,0b11100+224,0b10100,0b11100+160,0b00000+224,0b00111,//272 
.................... 0b00000,0b00100+224,0b11100+64,0b00000+224,0b11100,0b10100+160,0b11100+224,0b00000,//280 
.................... 0b01110,0b00000+224,0b00100+64,0b11100+224,0b00000,0b11100+160,0b10100+224,0b11100,//288 
.................... 0b10001,0b01110+224,0b00000+64,0b00100+224,0b11100,0b00000+160,0b11100+224,0b10100,//296 
.................... 0b10001,0b10001+224,0b01110+64,0b00000+224,0b00100,0b11100+160,0b00000+224,0b11100,//304 
.................... 0b00000,0b10001+224,0b10001+64,0b01110+224,0b00000,0b00100+160,0b11100+224,0b00000,//312 
.................... 0b11111,0b00000+224,0b10001+64,0b10001+224,0b01110,0b00000+160,0b00100+224,0b11100,//320 
.................... 0b00100,0b11111+224,0b00000+64,0b10001+224,0b10001,0b01110+160,0b00000+224,0b00100,//328 
.................... 0b00100,0b00100+224,0b11111+64,0b00000+224,0b10001,0b10001+160,0b01110+224,0b00000,//336 
.................... 0b11111,0b00100+224,0b00100+64,0b11111+224,0b00000,0b10001+160,0b10001+224,0b01110,//344 
.................... 0b00000,0b11111+224,0b00100+64,0b00100+224,0b11111,0b00000+160,0b10001+224,0b10001,//352 
.................... 0b00000,0b00000+224,0b11111+64,0b00100+224,0b00100,0b11111+160,0b00000+224,0b10001,//360 
.................... 0b11111,0b00000+224,0b00000+64,0b11111+224,0b00100,0b00100+160,0b11111+224,0b00000,//368 
.................... 0b00000,0b11111+224,0b00000+64,0b00000+224,0b11111,0b00100+160,0b00100+224,0b11111,//376 
.................... 0b11111,0b00000+224,0b11111+64,0b00000+224,0b00000,0b11111+160,0b00100+224,0b00100,//384 
.................... 0b00010,0b11111+224,0b00000+64,0b11111+224,0b00000,0b00000+160,0b11111+224,0b00100,//392 
.................... 0b00100,0b00010+224,0b11111+64,0b00000+224,0b11111,0b00000+160,0b00000+224,0b11111,//400 
.................... 0b01000,0b00100+224,0b00010+64,0b11111+224,0b00000,0b11111+160,0b00000+224,0b00000,//408 
.................... 0b11111,0b01000+224,0b00100+64,0b00010+224,0b11111,0b00000+160,0b11111+224,0b00000,//416 
.................... 0b00000,0b11111+224,0b01000+64,0b00100+224,0b00010,0b11111+160,0b00000+224,0b11111,//424 
.................... 0b01110,0b00000+224,0b11111+64,0b01000+224,0b00100,0b00010+160,0b11111+224,0b00000,//432 
.................... 0b10001,0b01110+224,0b00000+64,0b11111+224,0b01000,0b00100+160,0b00010+224,0b11111,//440 
.................... 0b10001,0b10001+224,0b01110+64,0b00000+224,0b11111,0b01000+160,0b00100+224,0b00010,//448 
.................... 0b00000,0b10001+224,0b10001+64,0b01110+224,0b00000,0b11111+160,0b01000+224,0b00100,//456 
.................... 0b00000,0b00000+224,0b10001+64,0b10001+224,0b01110,0b00000+160,0b11111+224,0b01000,//464 
.................... 0b00000,0b00000+224,0b00000+64,0b10001+224,0b10001,0b01110+160,0b00000+224,0b11111,//472 
.................... 0b00000,0b00000+224,0b00000+64,0b00000+224,0b10001,0b10001+160,0b01110+224,0b00000,//480 
.................... 0b00000,0b00000+224,0b00000+64,0b00000+224,0b00000,0b10001+160,0b10001+224,0b01110,//488 
.................... 0b00000,0b00000+224,0b00000+64,0b00000+224,0b00000,0b00000+160,0b10001+224,0b10001,//496 
.................... 0b00000,0b00000+224,0b00000+64,0b00000+224,0b00000,0b00000+160,0b00000+224,0b10001,//504 
.................... 0b00000,0b00000+224,0b00000+64,0b00000+224,0b00000,0b00000+160,0b00000+224,0b00000,//512 
....................  
.................... 0b00000,0b00000+224,0b00000+64,0b00000+224,0b00000,0b00000+160,0b00000+224,0b00000,//512 
.................... 0b00000,0b00000+224,0b00000+64,0b00000+224,0b00000,0b00000+160,0b00000+224,0b10001,//504 
.................... 0b00000,0b00000+224,0b00000+64,0b00000+224,0b00000,0b00000+160,0b10001+224,0b10001,//496 
.................... 0b00000,0b00000+224,0b00000+64,0b00000+224,0b00000,0b10001+160,0b10001+224,0b01110,//488 
.................... 0b00000,0b00000+224,0b00000+64,0b00000+224,0b10001,0b10001+160,0b01110+224,0b00000,//480 
.................... 0b00000,0b00000+224,0b00000+64,0b10001+224,0b10001,0b01110+160,0b00000+224,0b11111,//472 
.................... 0b00000,0b00000+224,0b10001+64,0b10001+224,0b01110,0b00000+160,0b11111+224,0b01000,//464 
.................... 0b00000,0b10001+224,0b10001+64,0b01110+224,0b00000,0b11111+160,0b01000+224,0b00100,//456 
.................... 0b10001,0b10001+224,0b01110+64,0b00000+224,0b11111,0b01000+160,0b00100+224,0b00010,//448 
.................... 0b10001,0b01110+224,0b00000+64,0b11111+224,0b01000,0b00100+160,0b00010+224,0b11111,//440 
.................... 0b01110,0b00000+224,0b11111+64,0b01000+224,0b00100,0b00010+160,0b11111+224,0b00000,//432 
.................... 0b00000,0b11111+224,0b01000+64,0b00100+224,0b00010,0b11111+160,0b00000+224,0b11111,//424 
.................... 0b11111,0b01000+224,0b00100+64,0b00010+224,0b11111,0b00000+160,0b11111+224,0b00000,//416 
.................... 0b01000,0b00100+224,0b00010+64,0b11111+224,0b00000,0b11111+160,0b00000+224,0b00000,//408 
.................... 0b00100,0b00010+224,0b11111+64,0b00000+224,0b11111,0b00000+160,0b00000+224,0b11111,//400 
.................... 0b00010,0b11111+224,0b00000+64,0b11111+224,0b00000,0b00000+160,0b11111+224,0b00100,//392 
.................... 0b11111,0b00000+224,0b11111+64,0b00000+224,0b00000,0b11111+160,0b00100+224,0b00100,//384 
.................... 0b00000,0b11111+224,0b00000+64,0b00000+224,0b11111,0b00100+160,0b00100+224,0b11111,//376 
.................... 0b11111,0b00000+224,0b00000+64,0b11111+224,0b00100,0b00100+160,0b11111+224,0b00000,//368 
.................... 0b00000,0b00000+224,0b11111+64,0b00100+224,0b00100,0b11111+160,0b00000+224,0b10001,//360 
.................... 0b00000,0b11111+224,0b00100+64,0b00100+224,0b11111,0b00000+160,0b10001+224,0b10001,//352 
.................... 0b11111,0b00100+224,0b00100+64,0b11111+224,0b00000,0b10001+160,0b10001+224,0b01110,//344 
.................... 0b00100,0b00100+224,0b11111+64,0b00000+224,0b10001,0b10001+160,0b01110+224,0b00000,//336 
.................... 0b00100,0b11111+224,0b00000+64,0b10001+224,0b10001,0b01110+160,0b00000+224,0b00100,//328 
.................... 0b11111,0b00000+224,0b10001+64,0b10001+224,0b01110,0b00000+160,0b00100+224,0b11100,//320 
.................... 0b00000,0b10001+224,0b10001+64,0b01110+224,0b00000,0b00100+160,0b11100+224,0b00000,//312 
.................... 0b10001,0b10001+224,0b01110+64,0b00000+224,0b00100,0b11100+160,0b00000+224,0b11100,//304 
.................... 0b10001,0b01110+224,0b00000+64,0b00100+224,0b11100,0b00000+160,0b11100+224,0b10100,//296 
.................... 0b01110,0b00000+224,0b00100+64,0b11100+224,0b00000,0b11100+160,0b10100+224,0b11100,//288 
.................... 0b00000,0b00100+224,0b11100+64,0b00000+224,0b11100,0b10100+160,0b11100+224,0b00000,//280 
.................... 0b00100,0b11100+224,0b00000+64,0b11100+224,0b10100,0b11100+160,0b00000+224,0b00111,//272 
.................... 0b11100,0b00000+224,0b11100+64,0b10100+224,0b11100,0b00000+160,0b00111+224,0b00101,//264 
.................... 0b00000,0b11100+224,0b10100+64,0b11100+224,0b00000,0b00111+160,0b00101+224,0b11111,//256 
.................... 0b11100,0b10100+224,0b11100+64,0b00000+224,0b00111,0b00101+160,0b11111+224,0b00000,//248 
.................... 0b10100,0b11100+224,0b00000+64,0b00111+224,0b00101,0b11111+160,0b00000+224,0b01110,//240 
.................... 0b11100,0b00000+224,0b00111+64,0b00101+224,0b11111,0b00000+160,0b01110+224,0b10001,//232 
.................... 0b00000,0b00111+224,0b00101+64,0b11111+224,0b00000,0b01110+160,0b10001+224,0b10001,//224 
.................... 0b00111,0b00101+224,0b11111+64,0b00000+224,0b01110,0b10001+160,0b10001+224,0b01110,//216 
.................... 0b00101,0b11111+224,0b00000+64,0b01110+224,0b10001,0b10001+160,0b01110+224,0b00000,//208 
.................... 0b11111,0b00000+224,0b01110+64,0b10001+224,0b10001,0b01110+160,0b00000+224,0b11111,//200 
.................... 0b00000,0b01110+224,0b10001+64,0b10001+224,0b01110,0b00000+160,0b11111+224,0b00100,//192 
.................... 0b01110,0b10001+224,0b10001+64,0b01110+224,0b00000,0b11111+160,0b00100+224,0b00100,//184 
.................... 0b10001,0b10001+224,0b01110+64,0b00000+224,0b11111,0b00100+160,0b00100+224,0b11111,//176 
.................... 0b10001,0b01110+224,0b00000+64,0b11111+224,0b00100,0b00100+160,0b11111+224,0b00000,//168 
.................... 0b01110,0b00000+224,0b11111+64,0b00100+224,0b00100,0b11111+160,0b00000+224,0b10001,//160 
.................... 0b00000,0b11111+224,0b00100+64,0b00100+224,0b11111,0b00000+160,0b10001+224,0b10001,//152 
.................... 0b11111,0b00100+224,0b00100+64,0b11111+224,0b00000,0b10001+160,0b10001+224,0b01110,//144 
.................... 0b00100,0b00100+224,0b11111+64,0b00000+224,0b10001,0b10001+160,0b01110+224,0b00000,//136 
.................... 0b00100,0b11111+224,0b00000+64,0b10001+224,0b10001,0b01110+160,0b00000+224,0b10101,//128 
.................... 0b11111,0b00000+224,0b10001+64,0b10001+224,0b01110,0b00000+160,0b10101+224,0b10101,//120 
.................... 0b00000,0b10001+224,0b10001+64,0b01110+224,0b00000,0b10101+160,0b10101+224,0b11111,//112 
.................... 0b10001,0b10001+224,0b11111+64,0b00000+224,0b10101,0b10101+160,0b11111+224,0b00000,//104 
.................... 0b10001,0b11111+224,0b00000+64,0b10101+224,0b10101,0b11111+160,0b00000+224,0b11111,//96 
.................... 0b11111,0b00000+224,0b10101+64,0b10101+224,0b11111,0b00000+160,0b11111+224,0b00100,//88 
.................... 0b00000,0b10101+224,0b10101+64,0b11111+224,0b00000,0b11111+160,0b00100+224,0b00100,//80 
.................... 0b10101,0b10101+224,0b11111+64,0b00000+224,0b11111,0b00100+160,0b00100+224,0b11111,//72 
.................... 0b10101,0b11111+224,0b00000+64,0b11111+224,0b00100,0b00100+160,0b11111+224,0b00000,//64 
.................... 0b11111,0b00000+224,0b11111+64,0b00100+224,0b00100,0b11111+160,0b00000+224,0b00000,//56 
.................... 0b00000,0b11111+224,0b00100+64,0b00100+224,0b11111,0b00000+160,0b00000+224,0b00000,//48 
.................... 0b11111,0b00100+224,0b00100+64,0b11111+224,0b00000,0b00000+160,0b00000+224,0b00000,//40 
.................... 0b00100,0b00100+224,0b11111+64,0b00000+224,0b00000,0b00000+160,0b00000+224,0b00000,//32 
.................... 0b00100,0b11111+224,0b00000+64,0b00000+224,0b00000,0b00000+160,0b00000+224,0b00000,//24 
.................... 0b11111,0b00000+224,0b00000+64,0b00000+224,0b00000,0b00000+160,0b00000+224,0b00000,//16 
.................... 0b00000,0b00000+224,0b00000+64,0b00000+224,0b00000,0b00000+160,0b00000+224,0b00000,//8 
.................... }; 
....................    int time=0; 
....................    long b=0,cs=8,c=0; 
....................     
.................... void main() 
.................... { 
0421:  CLRF   04
0422:  BCF    03.7
0423:  MOVLW  1F
0424:  ANDWF  03,F
0425:  CLRF   20
0426:  CLRF   22
0427:  CLRF   21
0428:  CLRF   24
0429:  MOVLW  08
042A:  MOVWF  23
042B:  CLRF   26
042C:  CLRF   25
042D:  MOVLW  07
042E:  MOVWF  1F
....................    Trisb=0; 
042F:  BSF    03.5
0430:  CLRF   06
....................    Trisa=0; 
0431:  CLRF   05
....................    Portb=0; 
0432:  BCF    03.5
0433:  CLRF   06
....................    Porta=0; 
0434:  CLRF   05
....................    for(time=0;time<10;time++) 
0435:  CLRF   20
0436:  MOVF   20,W
0437:  SUBLW  09
0438:  BTFSS  03.0
0439:  GOTO   441
....................    { 
....................       Porta=1; 
043A:  MOVLW  01
043B:  MOVWF  05
....................       delay_ms(1); 
043C:  MOVWF  27
043D:  CALL   40D
....................       Porta=0; 
043E:  CLRF   05
....................    } 
043F:  INCF   20,F
0440:  GOTO   436
....................    while(true) 
....................    { 
....................       for(time=0;time<5;time++) 
0441:  CLRF   20
0442:  MOVF   20,W
0443:  SUBLW  04
0444:  BTFSS  03.0
0445:  GOTO   46B
....................       { 
....................          Porta=2; Porta=3; Porta=0; 
0446:  MOVLW  02
0447:  MOVWF  05
0448:  MOVLW  03
0449:  MOVWF  05
044A:  CLRF   05
....................          for(b=c;b<cs;b++) 
044B:  MOVF   26,W
044C:  MOVWF  22
044D:  MOVF   25,W
044E:  MOVWF  21
044F:  MOVF   22,W
0450:  SUBWF  24,W
0451:  BTFSS  03.0
0452:  GOTO   469
0453:  BTFSS  03.2
0454:  GOTO   459
0455:  MOVF   23,W
0456:  SUBWF  21,W
0457:  BTFSC  03.0
0458:  GOTO   469
....................          { 
....................             Portb=sec[b]; 
0459:  MOVF   22,W
045A:  MOVWF  7A
045B:  MOVF   21,W
045C:  CALL   004
045D:  MOVWF  78
045E:  MOVWF  06
....................             delay_ms(2); 
045F:  MOVLW  02
0460:  MOVWF  27
0461:  CALL   40D
....................             Porta=1; Porta=0; 
0462:  MOVLW  01
0463:  MOVWF  05
0464:  CLRF   05
....................          } 
0465:  INCF   21,F
0466:  BTFSC  03.2
0467:  INCF   22,F
0468:  GOTO   44F
....................       } 
0469:  INCF   20,F
046A:  GOTO   442
....................    cs=cs+8; 
046B:  MOVLW  08
046C:  ADDWF  23,F
046D:  BTFSC  03.0
046E:  INCF   24,F
....................    c=c+8; 
046F:  MOVLW  08
0470:  ADDWF  25,F
0471:  BTFSC  03.0
0472:  INCF   26,F
....................    if(cs>1024){cs=8; c=0;} 
0473:  MOVF   24,W
0474:  SUBLW  03
0475:  BTFSC  03.0
0476:  GOTO   483
0477:  XORLW  FF
0478:  BTFSS  03.2
0479:  GOTO   47E
047A:  MOVF   23,W
047B:  SUBLW  00
047C:  BTFSC  03.0
047D:  GOTO   483
047E:  CLRF   24
047F:  MOVLW  08
0480:  MOVWF  23
0481:  CLRF   26
0482:  CLRF   25
....................    } 
0483:  GOTO   441
.................... } 
....................  
0484:  SLEEP

Configuration Fuses:
   Word  1: 3F0A   NOWDT NOPUT HS NOMCLR NOBROWNOUT NOLVP NOCPD NOPROTECT
