CCS PCM C Compiler, Version 4.114, 93460303               13-dic.-14 16:37

               Filename: C:\Users\ivan-_000\Documents\PIC\Pic C\Mtz serial\matriz-pc.lst

               ROM used: 338 words (17%)
                         Largest free fragment is 1710
               RAM used: 12 (5%) at main() level
                         13 (6%) worst case
               Stack:    1 locations

*
0000:  MOVLW  00
0001:  MOVWF  0A
0002:  GOTO   0F5
0003:  NOP
.................... #include <16f628a.h> 
.................... //////// Standard Header file for the PIC16F628A device //////////////// 
.................... #device PIC16F628A 
.................... #list 
....................  
....................  
.................... #fuses HS 
.................... #fuses NOWDT 
.................... #fuses NOMCLR 
.................... #fuses PUT 
.................... #fuses NOLVP 
.................... #fuses NOPROTECT 
.................... #fuses NOCPD 
.................... #fuses BROWNOUT 
.................... #use delay(clock=20M) 
00E1:  MOVLW  27
00E2:  MOVWF  04
00E3:  BCF    03.7
00E4:  MOVF   00,W
00E5:  BTFSC  03.2
00E6:  GOTO   0F4
00E7:  MOVLW  06
00E8:  MOVWF  78
00E9:  CLRF   77
00EA:  DECFSZ 77,F
00EB:  GOTO   0EA
00EC:  DECFSZ 78,F
00ED:  GOTO   0E9
00EE:  MOVLW  7B
00EF:  MOVWF  77
00F0:  DECFSZ 77,F
00F1:  GOTO   0F0
00F2:  DECFSZ 00,F
00F3:  GOTO   0E7
00F4:  GOTO   134 (RETURN)
....................  
.................... #BYTE TRISA=0x85 
.................... #BYTE PORTA=0x05 
.................... #BYTE TRISB=0x86 
.................... #BYTE PORTB=0x06 
.................... #use fast_io(a) 
....................  
.................... //#use rs232(baud=9600, xmit=PIN_A3, rcv=pin_A2, parity=n, bits=8, stop=1,  force_sw) 
.................... /*                     0b00110100 
.................... 0,0b11111110,0b00001001,0b00001001,0b00001001,0b00001001,0b11111110,  //Letra A -7 
.................... 0,0b01111110,0b10010001,0b10010001,0b10010001,0b11111111, //Letra B -6 
.................... 0,0b10000001,0b10000001,0b10000001,0b10000001,0b01111110, //Letra C -6 
.................... 0,0b01111110,0b10000001,0b10000001,0b10000001,0b11111111, //Letra D -6 
.................... 0,0b10010001,0b10010001,0b10010001,0b10010001,0b11111111, //Letra E -6 
.................... 0,0b00010001,0b00010001,0b00010001,0b00010001,0b11111111, //Letra F -6 
.................... 0,0b01100001,0b10010001,0b10010001,0b10000001,0b01111110, //Letra G -6 
.................... 0,0b11111111,0b00010000,0b00010000,0b00010000,0b11111111, //Letra H -6 
.................... 0,0b10000001,0b10000001,0b11111111,0b10000001,0b10000001, //Letra I -6 
.................... 0,0b01111111,0b10000000,0b10000000,0b10000000,0b01000000, //Letra J -6 
.................... 0,0b10000001,0b01000010,0b00100100,0b00011000,0b11111111, //Letra K -6 
.................... 0,0b10000000,0b10000000,0b10000000,0b10000000,0b11111111, //Letra L -6 
.................... 0,0b11111111,0b00000010,0b00000100,0b00001000,0b00000100,0b00000010,0b11111111, //Letra M -8 
.................... 0,0b11111111,0b01000000,0b00100000,0b00010000,0b00001000,0b11111111, //Letra N -7 
.................... 0,0b01111110,0b10000001,0b10000001,0b10000001,0b10000001,0b01111110, //Letra O -7 
.................... 0,0b00001110,0b00010001,0b00010001,0b00010001,0b11111111, //Letra P -6 
.................... 0,0b10111110,0b01000001,0b01100001,0b01000001,0b01000001,0b00111110, //Letra Q -7 
.................... 0,0b10001110,0b01010001,0b00110001,0b00010001,0b11111111, //Letra R -6 
.................... 0,0b01100001,0b10010001,0b10010001,0b10010001,0b10001110, //Letra S -6 
.................... 0,0b00000001,0b00000001,0b11111111,0b00000001,0b00000001, //Letra T -6 
.................... 0,0b01111111,0b10000000,0b10000000,0b10000000,0b01111111, //Letra U -6 
.................... 0,0b00111111,0b01000000,0b10000000,0b01000000,0b00111111, //Letra V -6 
.................... 0,0b01111111,0b10000000,0b01000000,0b10000000,0b01111111, //Letra W -6 
.................... 0,0b11000011,0b00100100,0b00011000,0b00100100,0b11000011, //Letra X -6 
.................... 0,0b00000011,0b00000100,0b11111000,0b00000100,0b00000011, //Letra Y -6 
.................... 0,0b10000001,0b10000011,0b10000101,0b10001001,0b10010001,0b10100001,0b11000001,0b10000001, //Letra Z -9 
.................... 0,0b10000000,0b10000000,0b11111111,0b10000010,0b10000100, //Numero 1 -6 
.................... 0,0b10000110,0b10001001,0b10010001,0b10100001,0b11000010, //Numero 2 -6 
.................... 0,0b01101110,0b10010001,0b10010001,0b10010001,0b01000010, //Numero 3 -6  
.................... 0,0b11111111,0b00010010,0b00010100,0b00011000,0b00010000, //Numero 4 -6 
.................... 0,0b01100001,0b10010001,0b10010001,0b10010001,0b10011111, //Numero 5 -6 
.................... 0,0b01100001,0b10010001,0b10010001,0b10010001,0b01111110, //Numero 6 -6 
.................... 0,0b11111111,0b00010001,0b00010001,0b00010001,0b00000001, //Numero 7 -6 
.................... 0,0b01101110,0b10010001,0b10010001,0b10010001,0b01101110, //Numero 8 -6 
.................... 0,0b11111110,0b00010001,0b00010001,0b00010001,0b00001110, //Numero 9 -6 
.................... 0,0b01111110,0b10001001,0b10010001,0b10100001,0b01111110, //Numero 0 -6 
.................... 0,0b00010000,0b00010000,0b00010000, //Gion (-) -4 
.................... 0,0,0,0, //Espacio -4 
.................... */ 
.................... char const sec[]= 
.................... { 
.................... 0,0,0,0,0,0,0,0, //Espacio 8 -8 
.................... 0,0b11111110,0b00001001,0b00001001,0b00001001,0b00001001,0b11111110,  //Letra A -7 
.................... 0,0b10000001,0b10000001,0b10000001,0b10000001,0b01111110, //Letra C -6 
.................... 0,0b10010001,0b10010001,0b10010001,0b10010001,0b11111111, //Letra E -6 
.................... 0,0b00000001,0b00000001,0b11111111,0b00000001,0b00000001, //Letra T -6 
.................... 0,0b10000001,0b10000011,0b10000101,0b10001001,0b10010001,0b10100001,0b11000001,0b10000001, //Letra Z -9 
.................... 0,0b11111110,0b00001001,0b00001001,0b00001001,0b00001001,0b11111110,  //Letra A -7 
.................... 0,0,0,0, //Espacio -4 
.................... 0,0b01111110,0b10000001,0b10000001,0b10000001,0b11111111, //Letra D -6 
.................... 0,0b10000001,0b10000001,0b10000001,0b10000001,0b01111110, //Letra C -6 
.................... 0,0,0b00010000,0b00010000,0b00010000,0, //Gion (-) -4 
.................... 0,0b11111110,0b00001001,0b00001001,0b00001001,0b00001001,0b11111110, //Letra A -7 
.................... 0,0b01111111,0b10000000,0b10000000,0b10000000,0b01111111, //Letra U -6 
.................... 0,0b01100001,0b10010001,0b10010001,0b10000001,0b01111110, //Letra G -6 
.................... 0,0b11111110,0b00001001,0b00001001,0b00001001,0b00001001,0b11111110, //Letra A -7 
.................... 0,0,0,0, //Espacio -4 
.................... 0,0b10010001,0b10010001,0b10010001,0b10010001,0b11111111, //Letra E -6 
.................... 0,0b01111110,0b10000001,0b10000001,0b10000001,0b11111111, //Letra D -6 
.................... 0,0,0,0, //Espacio -4 
.................... 0,0b01111110,0b10000001,0b10000001,0b10000001,0b10000001,0b01111110, //Letra O -7 
.................... 0,0b01111111,0b10000000,0b10000000,0b10000000,0b01000000, //Letra J -6 
.................... 0,0b01111110,0b10000001,0b10000001,0b10000001,0b10000001,0b01111110, //Letra O -7 
.................... 0,0,0,0, //Espacio -4 
.................... 0,0b01100001,0b10010001,0b10010001,0b10010001,0b10001110, //Letra S -6 
.................... 0,0b01100001,0b10010001,0b10010001,0b10010001,0b10001110, //Letra S -6 
.................... 0,0b10010001,0b10010001,0b10010001,0b10010001,0b11111111, //Letra E -6 
.................... 0,0b10001110,0b01010001,0b00110001,0b00010001,0b11111111, //Letra R -6 
.................... 0,0b00001110,0b00010001,0b00010001,0b00010001,0b11111111, //Letra P -6 
.................... 0,0b11000011,0b00100100,0b00011000,0b00100100,0b11000011, //Letra X -6 
.................... 0,0b10010001,0b10010001,0b10010001,0b10010001,0b11111111, //Letra E -6 
.................... 0,0,0,0, //Espacio -4 
.................... 0,0b01101110,0b10010001,0b10010001,0b10010001,0b01000010, //Numero 3 -6 
.................... 0,0b00010000,0b00010000,0b00010000, //Gion (-) -4 
.................... 0,0b10001110,0b01010001,0b00110001,0b00010001,0b11111111, //Letra R -6 
.................... 0,0b00000001,0b00000001,0b11111111,0b00000001,0b00000001, //Letra T -6 
.................... 0,0,0,0,0,0,0,0, //Espacio 8 -8 
.................... //Posicion 220 
.................... }; 
....................    int time=0; 
....................    long b=0,cs,c; 
.................... void main() 
.................... { 
00F5:  CLRF   04
00F6:  BCF    03.7
00F7:  MOVLW  1F
00F8:  ANDWF  03,F
00F9:  CLRF   20
00FA:  CLRF   22
00FB:  CLRF   21
00FC:  MOVLW  07
00FD:  MOVWF  1F
....................    Trisb=0; 
00FE:  BSF    03.5
00FF:  CLRF   06
....................    Trisa=0b00111100; 
0100:  MOVLW  3C
0101:  MOVWF  05
....................    Porta=0; 
0102:  BCF    03.5
0103:  CLRF   05
....................    portb=0; 
0104:  CLRF   06
....................    for(time=0;time<10;time++) 
0105:  CLRF   20
0106:  MOVF   20,W
0107:  SUBLW  09
0108:  BTFSS  03.0
0109:  GOTO   10E
....................    { 
....................       output_high(pin_a0);//Porta=1; 
010A:  BSF    05.0
....................       output_low(pin_a0);//Porta=0; 
010B:  BCF    05.0
....................    } 
010C:  INCF   20,F
010D:  GOTO   106
....................    c=212; 
010E:  CLRF   26
010F:  MOVLW  D4
0110:  MOVWF  25
....................    cs=220; 
0111:  CLRF   24
0112:  MOVLW  DC
0113:  MOVWF  23
....................    while(true) 
....................    { 
....................       for(time=0;time<8;time++) 
0114:  CLRF   20
0115:  MOVF   20,W
0116:  SUBLW  07
0117:  BTFSS  03.0
0118:  GOTO   13C
....................       { 
....................          output_high(pin_a1); 
0119:  BSF    05.1
....................          output_high(pin_a0); 
011A:  BSF    05.0
....................          output_low(pin_a1); 
011B:  BCF    05.1
....................          output_low(pin_a0); 
011C:  BCF    05.0
....................          for(b=c;b<cs;b++) 
011D:  MOVF   26,W
011E:  MOVWF  22
011F:  MOVF   25,W
0120:  MOVWF  21
0121:  MOVF   22,W
0122:  SUBWF  24,W
0123:  BTFSS  03.0
0124:  GOTO   13A
0125:  BTFSS  03.2
0126:  GOTO   12B
0127:  MOVF   23,W
0128:  SUBWF  21,W
0129:  BTFSC  03.0
012A:  GOTO   13A
....................          { 
....................             Portb=sec[b]; 
012B:  MOVF   22,W
012C:  MOVWF  7A
012D:  MOVF   21,W
012E:  CALL   004
012F:  MOVWF  78
0130:  MOVWF  06
....................             delay_ms(2); 
0131:  MOVLW  02
0132:  MOVWF  27
0133:  GOTO   0E1
....................             output_high(pin_a0);  
0134:  BSF    05.0
....................             output_low(pin_a0); 
0135:  BCF    05.0
....................          } 
0136:  INCF   21,F
0137:  BTFSC  03.2
0138:  INCF   22,F
0139:  GOTO   121
....................       } 
013A:  INCF   20,F
013B:  GOTO   115
....................       cs--; 
013C:  MOVF   23,W
013D:  BTFSC  03.2
013E:  DECF   24,F
013F:  DECF   23,F
....................       c--; 
0140:  MOVF   25,W
0141:  BTFSC  03.2
0142:  DECF   26,F
0143:  DECF   25,F
....................       if(cs==0){cs=220; c=212;} 
0144:  MOVF   23,F
0145:  BTFSS  03.2
0146:  GOTO   150
0147:  MOVF   24,F
0148:  BTFSS  03.2
0149:  GOTO   150
014A:  CLRF   24
014B:  MOVLW  DC
014C:  MOVWF  23
014D:  CLRF   26
014E:  MOVLW  D4
014F:  MOVWF  25
....................    } 
0150:  GOTO   114
.................... } 
0151:  SLEEP

Configuration Fuses:
   Word  1: 3F42   NOWDT PUT HS NOMCLR BROWNOUT NOLVP NOCPD NOPROTECT
