CCS PCM C Compiler, Version 4.130, 59972               27-ago.-15 21:16

               Filename: C:\Users\ivan-\Documents\MEGA\Microcontroladores\PIC\Pic C\16f677\Motor a pasos\motor a pasos.lst

               ROM used: 162 words (8%)
                         Largest free fragment is 1886
               RAM used: 19 (8%) at main() level
                         21 (9%) worst case
               Stack:    3 worst case (2 in main + 1 for interrupts)

*
0000:  MOVLW  00
0001:  MOVWF  0A
0002:  GOTO   05D
0003:  NOP
0004:  MOVWF  7F
0005:  SWAPF  03,W
0006:  CLRF   03
0007:  MOVWF  21
0008:  MOVF   7F,W
0009:  MOVWF  20
000A:  MOVF   0A,W
000B:  MOVWF  27
000C:  CLRF   0A
000D:  SWAPF  20,F
000E:  MOVF   04,W
000F:  MOVWF  22
0010:  MOVF   77,W
0011:  MOVWF  23
0012:  MOVF   78,W
0013:  MOVWF  24
0014:  MOVF   79,W
0015:  MOVWF  25
0016:  MOVF   7A,W
0017:  MOVWF  26
0018:  BCF    03.7
0019:  BCF    03.5
001A:  BTFSS  0B.4
001B:  GOTO   01E
001C:  BTFSC  0B.1
001D:  GOTO   02F
001E:  MOVF   22,W
001F:  MOVWF  04
0020:  MOVF   23,W
0021:  MOVWF  77
0022:  MOVF   24,W
0023:  MOVWF  78
0024:  MOVF   25,W
0025:  MOVWF  79
0026:  MOVF   26,W
0027:  MOVWF  7A
0028:  MOVF   27,W
0029:  MOVWF  0A
002A:  SWAPF  21,W
002B:  MOVWF  03
002C:  SWAPF  7F,F
002D:  SWAPF  7F,W
002E:  RETFIE
.................... #include <16f628a.h> 
.................... //////// Standard Header file for the PIC16F628A device //////////////// 
.................... #device PIC16F628A 
.................... #list 
....................  
.................... #fuses INTRC 
.................... #fuses NOWDT 
.................... #fuses NOMCLR 
.................... #fuses NOPUT 
.................... #fuses NOLVP 
.................... #fuses NOPROTECT 
.................... #fuses NOCPD 
.................... #fuses NOBROWNOUT 
.................... #use delay(clock=4000000) 
*
0032:  MOVLW  2F
0033:  MOVWF  04
0034:  BCF    03.7
0035:  MOVF   00,W
0036:  BTFSC  03.2
0037:  GOTO   046
0038:  MOVLW  01
0039:  MOVWF  78
003A:  CLRF   77
003B:  DECFSZ 77,F
003C:  GOTO   03B
003D:  DECFSZ 78,F
003E:  GOTO   03A
003F:  MOVLW  4A
0040:  MOVWF  77
0041:  DECFSZ 77,F
0042:  GOTO   041
0043:  GOTO   044
0044:  DECFSZ 00,F
0045:  GOTO   038
0046:  RETURN
.................... #BYTE TRISA=0X85 
.................... #BYTE PORTA=0x05 
.................... #BYTE TRISB=0x86 
.................... #BYTE PORTB=0x06 
.................... //Variables generales 
....................    short inf; 
....................    int i,vel,pasos,lado; 
....................    //long ; 
....................    //float ; 
.................... //Interrupcion_externa 
.................... #int_ext 
.................... void reset(void) 
.................... { 
....................     
.................... } 
.................... //Prototipos de funciones 
*
002F:  BCF    0B.1
0030:  BCF    0A.3
0031:  GOTO   01E
....................    void led_blink(int rep); 
.................... //Programa Principal 
.................... void main() 
.................... { 
*
005D:  CLRF   04
005E:  BCF    03.7
005F:  MOVLW  1F
0060:  ANDWF  03,F
0061:  BSF    03.5
0062:  BSF    0E.3
0063:  MOVLW  07
0064:  BCF    03.5
0065:  MOVWF  1F
....................    Trisa=0b01111111; 
0066:  MOVLW  7F
0067:  BSF    03.5
0068:  MOVWF  05
....................    Trisb=0b11110000; 
0069:  MOVLW  F0
006A:  MOVWF  06
....................    Portb=0; 
006B:  BCF    03.5
006C:  CLRF   06
....................    enable_interrupts(int_ext); 
006D:  BSF    0B.4
....................    enable_interrupts(global); 
006E:  MOVLW  C0
006F:  IORWF  0B,F
....................    for(;;) 
....................    { 
....................       led_blink(5); 
0070:  MOVLW  05
0071:  MOVWF  2D
0072:  CALL   047
....................       while(!(input(pin_b2) | input(pin_b1))); 
0073:  BSF    03.5
0074:  BSF    06.2
0075:  MOVLW  00
0076:  BCF    03.5
0077:  BTFSC  06.2
0078:  MOVLW  01
0079:  MOVWF  2D
007A:  BSF    03.5
007B:  BSF    06.1
007C:  MOVLW  00
007D:  BCF    03.5
007E:  BTFSC  06.1
007F:  MOVLW  01
0080:  IORWF  2D,W
0081:  BTFSC  03.2
0082:  GOTO   073
....................       vel=input_a(); 
0083:  MOVLW  FF
0084:  BSF    03.5
0085:  MOVWF  05
0086:  BCF    03.5
0087:  MOVF   05,W
0088:  MOVWF  2A
....................       led_blink(3); 
0089:  MOVLW  03
008A:  MOVWF  2D
008B:  CALL   047
....................       pasos=input_a(); 
008C:  MOVLW  FF
008D:  BSF    03.5
008E:  MOVWF  05
008F:  BCF    03.5
0090:  MOVF   05,W
0091:  MOVWF  2B
....................       if(pasos>=255) 
0092:  INCFSZ 2B,W
0093:  GOTO   095
....................          inf=true; 
0094:  BSF    28.0
....................       for(i=0;i<pasos;i++) 
0095:  CLRF   29
0096:  MOVF   2B,W
0097:  SUBWF  29,W
0098:  BTFSC  03.0
0099:  GOTO   0A0
....................       { 
....................          portb=0b00010000; 
009A:  MOVLW  10
009B:  MOVWF  06
....................          portb<<=1; 
009C:  BCF    03.0
009D:  RLF    06,F
....................       } 
009E:  INCF   29,F
009F:  GOTO   096
....................        
....................    } 
00A0:  GOTO   070
.................... } 
.................... void led_blink(int rep) 
.................... { 
00A1:  SLEEP
....................    for(int r=0;i<rep;++r) 
*
0047:  CLRF   2E
0048:  MOVF   2D,W
0049:  SUBWF  29,W
004A:  BTFSC  03.0
004B:  GOTO   05C
....................    { 
....................       output_high(pin_a7); 
004C:  BSF    03.5
004D:  BCF    05.7
004E:  BCF    03.5
004F:  BSF    05.7
....................       delay_ms(200); 
0050:  MOVLW  C8
0051:  MOVWF  2F
0052:  CALL   032
....................       output_high(pin_a7); 
0053:  BSF    03.5
0054:  BCF    05.7
0055:  BCF    03.5
0056:  BSF    05.7
....................       delay_ms(200); 
0057:  MOVLW  C8
0058:  MOVWF  2F
0059:  CALL   032
....................    } 
005A:  INCF   2E,F
005B:  GOTO   048
.................... } 
005C:  RETURN

Configuration Fuses:
   Word  1: 3F19   NOWDT NOPUT INTRC NOMCLR NOBROWNOUT NOLVP NOCPD NOPROTECT
