CCS PCM C Compiler, Version 4.114, 93460303               23-feb.-15 21:58

               Filename: C:\Users\ivan-_000\Documents\PIC\Pic C\matriz bienvenidos\bienvenidos.lst

               ROM used: 199 words (10%)
                         Largest free fragment is 1849
               RAM used: 12 (5%) at main() level
                         13 (6%) worst case
               Stack:    1 locations

*
0000:  MOVLW  00
0001:  MOVWF  0A
0002:  GOTO   06B
0003:  NOP
.................... #include <16f628a.h> 
.................... //////// Standard Header file for the PIC16F628A device //////////////// 
.................... #device PIC16F628A 
.................... #list 
....................  
....................  
.................... #fuses HS 
.................... #fuses NOWDT 
.................... #fuses NOMCLR 
.................... #fuses NOPUT 
.................... #fuses NOLVP 
.................... #fuses NOPROTECT 
.................... #fuses NOCPD 
.................... #fuses NOBROWNOUT 
.................... #use delay(clock=2M) 
005D:  MOVLW  27
005E:  MOVWF  04
005F:  BCF    03.7
0060:  MOVF   00,W
0061:  BTFSC  03.2
0062:  GOTO   06A
0063:  MOVLW  A5
0064:  MOVWF  77
0065:  DECFSZ 77,F
0066:  GOTO   065
0067:  NOP
0068:  DECFSZ 00,F
0069:  GOTO   063
006A:  GOTO   0A9 (RETURN)
....................  
.................... #BYTE TRISA=0x85 
.................... #BYTE PORTA=0x05 
.................... #BYTE TRISB=0x86 
.................... #BYTE PORTB=0x06 
.................... #use fast_io(a) 
.................... #use fast_io(b) 
.................... /* 
.................... 0,0,0b11111110,0b00001001,0b00001001,0b00001001,0b00001001,0b11111110,  //Letra A 
.................... 0,0,0,0b01111110,0b10010001,0b10010001,0b10010001,0b11111111, //Letra B 
.................... 0,0,0,0b10000001,0b10000001,0b10000001,0b10000001,0b01111110, //Letra C 
.................... 0,0,0,0b01111110,0b10000001,0b10000001,0b10000001,0b11111111, //Letra D 
.................... 0,0,0,0b10010001,0b10010001,0b10010001,0b10010001,0b11111111, //Letra E 
.................... 0,0,0,0b00010001,0b00010001,0b00010001,0b00010001,0b11111111, //Letra F 
.................... 0,0,0,0b01100001,0b10010001,0b10010001,0b10000001,0b01111110, //Letra G 
.................... 0,0,0,0b11111111,0b00010000,0b00010000,0b00010000,0b11111111, //Letra H 
.................... 0,0,0,0b10000001,0b10000001,0b11111111,0b10000001,0b10000001, //Letra I 
.................... 0,0,0,0b01111111,0b10000000,0b10000000,0b10000000,0b01000000, //Letra J 
.................... 0,0,0,0b10000001,0b01000010,0b00100100,0b00011000,0b11111111, //Letra K 
.................... 0,0,0,0b10000000,0b10000000,0b10000000,0b10000000,0b11111111, //Letra L 
.................... 0,0b11111111,0b00000010,0b00000100,0b00001000,0b00000100,0b00000010,0b11111111, //Letra M 
.................... 0,0,0b11111111,0b01000000,0b00100000,0b00010000,0b00001000,0b11111111, //Letra N 
.................... 0,0,0b01111110,0b10000001,0b10000001,0b10000001,0b10000001,0b01111110, //Letra O 
.................... 0,0,0,0b00001110,0b00010001,0b00010001,0b00010001,0b11111111, //Letra P 
.................... 0,0,0b10111110,0b01000001,0b01100001,0b01000001,0b01000001,0b00111110, //Letra Q 
.................... 0,0,0,0b10001110,0b01010001,0b00110001,0b00010001,0b11111111, //Letra R 
.................... 0,0,0,0b01100001,0b10010001,0b10010001,0b10010001,0b10001110, //Letra S 
.................... 0,0,0,0b00000001,0b00000001,0b11111111,0b00000001,0b00000001, //Letra T 
.................... 0,0,0,0b01111111,0b10000000,0b10000000,0b10000000,0b01111111, //Letra U 
.................... 0,0,0,0b00111111,0b01000000,0b10000000,0b01000000,0b00111111, //Letra V 
.................... 0,0,0,0b01111111,0b10000000,0b01000000,0b10000000,0b01111111, //Letra W 
.................... 0,0,0,0b11000011,0b00100100,0b00011000,0b00100100,0b11000011, //Letra X 
.................... 0,0,0,0b00000011,0b00000100,0b11111000,0b00000100,0b00000011, //Letra Y 
.................... 0b10000001,0b10000011,0b10000101,0b10001001,0b10010001,0b10100001,0b11000001,0b10000001, //Letra Z 
.................... 0,0,0,0b10000000,0b10000000,0b11111111,0b10000010,0b10000100, //Numero 1 
.................... 0,0,0,0b10000110,0b10001001,0b10010001,0b10100001,0b11000010, //Numero 2 
.................... 0,0,0,0b01101110,0b10010001,0b10010001,0b10010001,0b01000010, //Numero 3 
.................... 0,0,0,0b11111111,0b00010010,0b00010100,0b00011000,0b00010000, //Numero 4 
.................... 0,0,0,0b01100001,0b10010001,0b10010001,0b10010001,0b10011111, //Numero 5 
.................... 0,0,0,0b01100001,0b10010001,0b10010001,0b10010001,0b01111110, //Numero 6 
.................... 0,0,0,0b11111111,0b00010001,0b00010001,0b00010001,0b00000001, //Numero 7 
.................... 0,0,0,0b01101110,0b10010001,0b10010001,0b10010001,0b01101110, //Numero 8 
.................... 0,0,0,0b11111110,0b00010001,0b00010001,0b00010001,0b00001110, //Numero 9 
.................... 0,0,0,0b01111110,0b10001001,0b10010001,0b10100001,0b01111110, //Numero 0 
.................... 0,0,0,0,0b00010000,0b00010000,0b00010000,0, //Gion (-)  
.................... 0,0,0,0, //Espacio 
.................... */ 
.................... char const sec[]= 
.................... { 
.................... 0,0,0,0,0,0,0,0, //Espacio 8 -8 
.................... 0,0b01100001,0b10010001,0b10010001,0b10010001,0b10001110, //Letra S -6 
.................... 0,0b01111110,0b10000001,0b10000001,0b10000001,0b10000001,0b01111110, //Letra O -7 
.................... 0,0b01111110,0b10000001,0b10000001,0b10000001,0b11111111, //Letra D -6 
.................... 0,0b10000001,0b10000001,0b11111111,0b10000001,0b10000001, //Letra I -6  
.................... 0,0b11111111,0b01000000,0b00100000,0b00010000,0b00001000,0b11111111, //Letra N -7 
.................... 0,0b10010001,0b10010001,0b10010001,0b10010001,0b11111111, //Letra E -6 
.................... 0,0b00111111,0b01000000,0b10000000,0b01000000,0b00111111, //Letra V -6 
.................... 0,0b11111111,0b01000000,0b00100000,0b00010000,0b00001000,0b11111111, //Letra N -7 
.................... 0,0b10010001,0b10010001,0b10010001,0b10010001,0b11111111, //Letra E -6 
.................... 0,0b10000001,0b10000001,0b11111111,0b10000001,0b10000001, //Letra I -6 
.................... 0,0b01111110,0b10010001,0b10010001,0b10010001,0b11111111, //Letra B -6 
.................... 0,0,0,0,0,0,0,0, //Espacio 8 -8 
.................... //Posicion 220 
.................... }; 
....................    int time=0; 
....................    long b=0,cs,c; 
....................     
.................... void main() 
.................... { 
006B:  CLRF   04
006C:  BCF    03.7
006D:  MOVLW  1F
006E:  ANDWF  03,F
006F:  CLRF   20
0070:  CLRF   22
0071:  CLRF   21
0072:  MOVLW  07
0073:  MOVWF  1F
....................    Trisb=0; 
0074:  BSF    03.5
0075:  CLRF   06
....................    set_Tris_a(0b00010000); 
0076:  MOVLW  10
0077:  TRIS   5
....................    portb=0; 
0078:  BCF    03.5
0079:  CLRF   06
....................    for(time=0;time<10;time++) 
007A:  CLRF   20
007B:  MOVF   20,W
007C:  SUBLW  09
007D:  BTFSS  03.0
007E:  GOTO   083
....................    { 
....................       output_high(pin_a0);//Porta=1; 
007F:  BSF    05.0
....................       output_low(pin_a0);//Porta=0; 
0080:  BCF    05.0
....................    } 
0081:  INCF   20,F
0082:  GOTO   07B
....................    
....................    c=77; 
0083:  CLRF   26
0084:  MOVLW  4D
0085:  MOVWF  25
....................    cs=85; 
0086:  CLRF   24
0087:  MOVLW  55
0088:  MOVWF  23
....................    while(true) 
....................    { 
....................       for(time=0;time<8;time++) 
0089:  CLRF   20
008A:  MOVF   20,W
008B:  SUBLW  07
008C:  BTFSS  03.0
008D:  GOTO   0B1
....................       { 
....................          //Porta=2; Porta=3; Porta=0; 
....................          output_high(pin_a1); 
008E:  BSF    05.1
....................          output_high(pin_a0); 
008F:  BSF    05.0
....................          output_low(pin_a1); 
0090:  BCF    05.1
....................          output_low(pin_a0); 
0091:  BCF    05.0
....................          for(b=c;b<cs;b++) 
0092:  MOVF   26,W
0093:  MOVWF  22
0094:  MOVF   25,W
0095:  MOVWF  21
0096:  MOVF   22,W
0097:  SUBWF  24,W
0098:  BTFSS  03.0
0099:  GOTO   0AF
009A:  BTFSS  03.2
009B:  GOTO   0A0
009C:  MOVF   23,W
009D:  SUBWF  21,W
009E:  BTFSC  03.0
009F:  GOTO   0AF
....................          { 
....................             Portb=sec[b]; 
00A0:  MOVF   22,W
00A1:  MOVWF  7A
00A2:  MOVF   21,W
00A3:  CALL   004
00A4:  MOVWF  78
00A5:  MOVWF  06
....................             delay_ms(2); 
00A6:  MOVLW  02
00A7:  MOVWF  27
00A8:  GOTO   05D
....................             output_high(pin_a0);  
00A9:  BSF    05.0
....................             output_low(pin_a0); 
00AA:  BCF    05.0
....................          } 
00AB:  INCF   21,F
00AC:  BTFSC  03.2
00AD:  INCF   22,F
00AE:  GOTO   096
....................       } 
00AF:  INCF   20,F
00B0:  GOTO   08A
....................    cs--; 
00B1:  MOVF   23,W
00B2:  BTFSC  03.2
00B3:  DECF   24,F
00B4:  DECF   23,F
....................    c--; 
00B5:  MOVF   25,W
00B6:  BTFSC  03.2
00B7:  DECF   26,F
00B8:  DECF   25,F
....................    if(cs==0){cs=85; c=77;} 
00B9:  MOVF   23,F
00BA:  BTFSS  03.2
00BB:  GOTO   0C5
00BC:  MOVF   24,F
00BD:  BTFSS  03.2
00BE:  GOTO   0C5
00BF:  CLRF   24
00C0:  MOVLW  55
00C1:  MOVWF  23
00C2:  CLRF   26
00C3:  MOVLW  4D
00C4:  MOVWF  25
....................    }   
00C5:  GOTO   089
.................... } 
....................  
00C6:  SLEEP

Configuration Fuses:
   Word  1: 3F0A   NOWDT NOPUT HS NOMCLR NOBROWNOUT NOLVP NOCPD NOPROTECT
