CCS PCM C Compiler, Version 4.130, 59972               09-nov.-14 23:44

               Filename: C:\Users\Ivan-ua\Documents\PIC\Pic C\Nueva carpeta\termometro leds.lst

               ROM used: 252 words (12%)
                         Largest free fragment is 1796
               RAM used: 5 (4%) at main() level
                         8 (6%) worst case
               Stack:    1 locations

*
0000:  MOVLW  00
0001:  MOVWF  0A
0002:  GOTO   017
0003:  NOP
.................... #include <16f677.h> 
.................... //////// Standard Header file for the PIC16F677 device //////////////// 
.................... #device PIC16F677 
.................... #list 
....................  
.................... #device adc=16 
....................  
.................... #FUSES NOWDT                  
.................... #FUSES INTRC_IO                
.................... #FUSES NOMCLR                    
.................... #FUSES NOBROWNOUT 
.................... #FUSES NOPUT 
.................... #FUSES NOPROTECT 
.................... #FUSES NOCPD              
.................... //#define OSC_8MHZ  
....................  
.................... #use delay(clock=8000000) 
0004:  MOVLW  27
0005:  MOVWF  04
0006:  MOVF   00,W
0007:  BTFSC  03.2
0008:  GOTO   016
0009:  MOVLW  02
000A:  MOVWF  21
000B:  CLRF   20
000C:  DECFSZ 20,F
000D:  GOTO   00C
000E:  DECFSZ 21,F
000F:  GOTO   00B
0010:  MOVLW  97
0011:  MOVWF  20
0012:  DECFSZ 20,F
0013:  GOTO   012
0014:  DECFSZ 00,F
0015:  GOTO   009
0016:  GOTO   04F (RETURN)
.................... #BYTE TRISA=0x85 
.................... #BYTE TRISB=0x86 
.................... #BYTE TRISC=0x87 
.................... #BYTE PORTA=0x05 
.................... #BYTE PORTB=0x06 
.................... #BYTE PORTC=0x07 
....................  
.................... void main() 
.................... { 
0017:  CLRF   04
0018:  MOVLW  1F
0019:  ANDWF  03,F
001A:  MOVLW  71
001B:  BSF    03.5
001C:  MOVWF  0F
001D:  MOVF   0F,W
001E:  BCF    03.5
001F:  BSF    03.6
0020:  BCF    1F.0
0021:  BCF    1F.1
0022:  BCF    1F.2
0023:  BCF    1F.3
0024:  BCF    03.6
0025:  BCF    1F.6
0026:  MOVLW  00
0027:  BSF    03.6
0028:  MOVWF  1E
0029:  CLRF   19
002A:  CLRF   1A
002B:  BSF    03.5
002C:  CLRF   1E
002D:  BCF    03.5
002E:  CLRF   1B
002F:  BCF    03.6
0030:  BCF    0D.5
....................    setup_oscillator(OSC_8MHZ); 
0031:  MOVLW  71
0032:  BSF    03.5
0033:  MOVWF  0F
0034:  MOVF   0F,W
....................    Trisb=0; 
0035:  CLRF   06
....................    Trisc=0; 
0036:  CLRF   07
....................    Portc=0; 
0037:  BCF    03.5
0038:  CLRF   07
....................    Portb=0; 
0039:  CLRF   06
....................    setup_adc_ports(sAN0); 
003A:  BSF    03.6
003B:  BCF    1F.0
003C:  BCF    1F.1
003D:  BCF    1F.2
003E:  BCF    1F.3
003F:  BCF    03.6
0040:  BCF    1F.6
0041:  MOVLW  01
0042:  BSF    03.6
0043:  MOVWF  1E
....................    setup_adc(ADC_CLOCK_INTERNAL); 
0044:  BSF    03.5
0045:  BCF    03.6
0046:  BSF    1F.4
0047:  BSF    1F.5
0048:  BCF    1F.6
0049:  BCF    03.5
004A:  BCF    1F.7
004B:  BSF    1F.0
....................    long temp; 
....................    while(true) 
....................    { 
....................        inicio: 
....................        delay_ms(50); 
004C:  MOVLW  32
004D:  MOVWF  27
004E:  GOTO   004
....................        temp=read_adc(); 
004F:  BSF    1F.1
0050:  BTFSC  1F.1
0051:  GOTO   050
0052:  BSF    03.5
0053:  MOVF   1E,W
0054:  BCF    03.5
0055:  MOVWF  25
0056:  MOVF   1E,W
0057:  MOVWF  26
....................        if(temp<4718){Portb=0;} 
0058:  MOVF   26,W
0059:  SUBLW  12
005A:  BTFSS  03.0
005B:  GOTO   062
005C:  BTFSS  03.2
005D:  GOTO   061
005E:  MOVF   25,W
005F:  SUBLW  6D
0060:  BTFSC  03.0
0061:  CLRF   06
....................        if(temp<524){Portc=0; goto inicio;} 
0062:  MOVF   26,W
0063:  SUBLW  02
0064:  BTFSS  03.0
0065:  GOTO   06E
0066:  BTFSS  03.2
0067:  GOTO   06C
0068:  MOVF   25,W
0069:  SUBLW  0B
006A:  BTFSS  03.0
006B:  GOTO   06E
006C:  CLRF   07
006D:  GOTO   04C
....................        if(temp>=5242){Portb=0b11000000; goto cof;} 
006E:  MOVF   26,W
006F:  SUBLW  13
0070:  BTFSC  03.0
0071:  GOTO   07C
0072:  XORLW  FF
0073:  BTFSS  03.2
0074:  GOTO   079
0075:  MOVF   25,W
0076:  SUBLW  79
0077:  BTFSC  03.0
0078:  GOTO   07C
0079:  MOVLW  C0
007A:  MOVWF  06
007B:  GOTO   08A
....................        if(temp>=4718){Portb=0b01000000; goto cof;} 
007C:  MOVF   26,W
007D:  SUBLW  11
007E:  BTFSC  03.0
007F:  GOTO   08A
0080:  XORLW  FF
0081:  BTFSS  03.2
0082:  GOTO   087
0083:  MOVF   25,W
0084:  SUBLW  6D
0085:  BTFSC  03.0
0086:  GOTO   08A
0087:  MOVLW  40
0088:  MOVWF  06
0089:  GOTO   08A
....................        cof: 
....................        if(temp>=4194){Portc=0b11111111; goto inicio;} 
008A:  MOVF   26,W
008B:  SUBLW  0F
008C:  BTFSC  03.0
008D:  GOTO   098
008E:  XORLW  FF
008F:  BTFSS  03.2
0090:  GOTO   095
0091:  MOVF   25,W
0092:  SUBLW  61
0093:  BTFSC  03.0
0094:  GOTO   098
0095:  MOVLW  FF
0096:  MOVWF  07
0097:  GOTO   04C
....................        if(temp>=3670){Portc=0b01111111; goto inicio;} 
0098:  MOVF   26,W
0099:  SUBLW  0D
009A:  BTFSC  03.0
009B:  GOTO   0A6
009C:  XORLW  FF
009D:  BTFSS  03.2
009E:  GOTO   0A3
009F:  MOVF   25,W
00A0:  SUBLW  55
00A1:  BTFSC  03.0
00A2:  GOTO   0A6
00A3:  MOVLW  7F
00A4:  MOVWF  07
00A5:  GOTO   04C
....................        if(temp>=3145){Portc=0b00111111; goto inicio;} 
00A6:  MOVF   26,W
00A7:  SUBLW  0B
00A8:  BTFSC  03.0
00A9:  GOTO   0B4
00AA:  XORLW  FF
00AB:  BTFSS  03.2
00AC:  GOTO   0B1
00AD:  MOVF   25,W
00AE:  SUBLW  48
00AF:  BTFSC  03.0
00B0:  GOTO   0B4
00B1:  MOVLW  3F
00B2:  MOVWF  07
00B3:  GOTO   04C
....................        if(temp>=2621){Portc=0b00011111; goto inicio;} 
00B4:  MOVF   26,W
00B5:  SUBLW  09
00B6:  BTFSC  03.0
00B7:  GOTO   0C2
00B8:  XORLW  FF
00B9:  BTFSS  03.2
00BA:  GOTO   0BF
00BB:  MOVF   25,W
00BC:  SUBLW  3C
00BD:  BTFSC  03.0
00BE:  GOTO   0C2
00BF:  MOVLW  1F
00C0:  MOVWF  07
00C1:  GOTO   04C
....................        if(temp>=2097){Portc=0b00001111; goto inicio;} 
00C2:  MOVF   26,W
00C3:  SUBLW  07
00C4:  BTFSC  03.0
00C5:  GOTO   0D0
00C6:  XORLW  FF
00C7:  BTFSS  03.2
00C8:  GOTO   0CD
00C9:  MOVF   25,W
00CA:  SUBLW  30
00CB:  BTFSC  03.0
00CC:  GOTO   0D0
00CD:  MOVLW  0F
00CE:  MOVWF  07
00CF:  GOTO   04C
....................        if(temp>=1577){Portc=0b00000111; goto inicio;} 
00D0:  MOVF   26,W
00D1:  SUBLW  05
00D2:  BTFSC  03.0
00D3:  GOTO   0DE
00D4:  XORLW  FF
00D5:  BTFSS  03.2
00D6:  GOTO   0DB
00D7:  MOVF   25,W
00D8:  SUBLW  28
00D9:  BTFSC  03.0
00DA:  GOTO   0DE
00DB:  MOVLW  07
00DC:  MOVWF  07
00DD:  GOTO   04C
....................        if(temp>=1048){Portc=0b00000011; goto inicio;} 
00DE:  MOVF   26,W
00DF:  SUBLW  03
00E0:  BTFSC  03.0
00E1:  GOTO   0EC
00E2:  XORLW  FF
00E3:  BTFSS  03.2
00E4:  GOTO   0E9
00E5:  MOVF   25,W
00E6:  SUBLW  17
00E7:  BTFSC  03.0
00E8:  GOTO   0EC
00E9:  MOVLW  03
00EA:  MOVWF  07
00EB:  GOTO   04C
....................        if(temp>=524){Portc=0b00000001; goto inicio;}    
00EC:  MOVF   26,W
00ED:  SUBLW  01
00EE:  BTFSC  03.0
00EF:  GOTO   0FA
00F0:  XORLW  FF
00F1:  BTFSS  03.2
00F2:  GOTO   0F7
00F3:  MOVF   25,W
00F4:  SUBLW  0B
00F5:  BTFSC  03.0
00F6:  GOTO   0FA
00F7:  MOVLW  01
00F8:  MOVWF  07
00F9:  GOTO   04C
....................    } 
00FA:  GOTO   04C
.................... } 
00FB:  SLEEP

Configuration Fuses:
   Word  1: 3CD4   INTRC_IO NOWDT NOPUT NOMCLR NOPROTECT NOCPD NOBROWNOUT IESO FCMEN
