CCS PCM C Compiler, Version 4.130, 59972               01-nov.-14 01:24

               Filename: C:\Users\Ivan-ua\Documents\PIC\Pic C\P8\Display.lst

               ROM used: 265 words (13%)
                         Largest free fragment is 1783
               RAM used: 11 (5%) at main() level
                         12 (5%) worst case
               Stack:    2 locations

*
0000:  MOVLW  00
0001:  MOVWF  0A
0002:  GOTO   034
0003:  NOP
.................... #include <16f628a.h> 
.................... //////// Standard Header file for the PIC16F628A device //////////////// 
.................... #device PIC16F628A 
.................... #list 
....................  
....................  
.................... #use delay(int=4000000) 
*
0004:  MOVLW  26
0005:  MOVWF  04
0006:  BCF    03.7
0007:  MOVF   00,W
0008:  BTFSC  03.2
0009:  GOTO   018
000A:  MOVLW  01
000B:  MOVWF  78
000C:  CLRF   77
000D:  DECFSZ 77,F
000E:  GOTO   00D
000F:  DECFSZ 78,F
0010:  GOTO   00C
0011:  MOVLW  4A
0012:  MOVWF  77
0013:  DECFSZ 77,F
0014:  GOTO   013
0015:  GOTO   016
0016:  DECFSZ 00,F
0017:  GOTO   00A
0018:  RETURN
.................... #fuses NOWDT 
.................... #fuses NOMCLR 
.................... #fuses NOPUT 
.................... #fuses NOLVP 
.................... #fuses INTRC 
.................... #fuses NOPROTECT 
.................... #fuses NOCPD 
.................... #fuses NOBROWNOUT 
.................... #BYTE TRISA=0x85 
.................... #BYTE PORTA=0x05 
.................... #BYTE TRISB=0x86 
.................... #BYTE PORTB=0x06 
....................  
.................... int unid=0; //0b10010011 
.................... int dece=0; //0b00001011 
.................... int cent=0; //0b00000111 
.................... void condicion(); 
.................... int const disp[10]={63,6,91,79,102,109,125,7,127,111}; 
.................... void main() 
.................... { 
*
0034:  CLRF   04
0035:  BCF    03.7
0036:  MOVLW  1F
0037:  ANDWF  03,F
0038:  BSF    03.5
0039:  BSF    0E.3
003A:  BCF    03.5
003B:  CLRF   20
003C:  CLRF   21
003D:  CLRF   22
003E:  MOVLW  07
003F:  MOVWF  1F
0040:  CLRF   23
0041:  CLRF   24
0042:  CLRF   25
....................    int unidd=0; 
....................    int deced=0; 
....................    int centd=0; 
....................    trisa=0b00000011; 
0043:  MOVLW  03
0044:  BSF    03.5
0045:  MOVWF  05
....................    trisb=0; 
0046:  CLRF   06
....................    Portb=0; 
0047:  BCF    03.5
0048:  CLRF   06
....................    Porta=255; 
0049:  MOVLW  FF
004A:  MOVWF  05
....................    while(true) 
....................    { 
....................       condicion(); 
004B:  GOTO   019
....................       switch(unid) 
....................       { 
004C:  MOVF   20,W
004D:  ADDLW  F5
004E:  BTFSC  03.0
004F:  GOTO   073
0050:  ADDLW  0B
0051:  GOTO   0D9
....................          case 0: 
....................             unidd=disp[0]; 
0052:  MOVLW  3F
0053:  MOVWF  23
....................             break; 
0054:  GOTO   073
....................          case 1: 
....................             unidd=disp[1]; 
0055:  MOVLW  06
0056:  MOVWF  23
....................             break; 
0057:  GOTO   073
....................          case 2: 
....................             unidd=disp[2]; 
0058:  MOVLW  5B
0059:  MOVWF  23
....................             break; 
005A:  GOTO   073
....................          case 3: 
....................             unidd=disp[3]; 
005B:  MOVLW  4F
005C:  MOVWF  23
....................             break;    
005D:  GOTO   073
....................          case 4: 
....................             unidd=disp[4]; 
005E:  MOVLW  66
005F:  MOVWF  23
....................             break; 
0060:  GOTO   073
....................          case 5: 
....................             unidd=disp[5]; 
0061:  MOVLW  6D
0062:  MOVWF  23
....................             break; 
0063:  GOTO   073
....................          case 6: 
....................             unidd=disp[6]; 
0064:  MOVLW  7D
0065:  MOVWF  23
....................             break; 
0066:  GOTO   073
....................          case 7: 
....................             unidd=disp[7]; 
0067:  MOVLW  07
0068:  MOVWF  23
....................             break; 
0069:  GOTO   073
....................          case 8: 
....................             unidd=disp[8]; 
006A:  MOVLW  7F
006B:  MOVWF  23
....................             break; 
006C:  GOTO   073
....................          case 9: 
....................             unidd=disp[9]; 
006D:  MOVLW  6F
006E:  MOVWF  23
....................             break; 
006F:  GOTO   073
....................          case 10: 
....................             dece++; unid=0; 
0070:  INCF   21,F
0071:  CLRF   20
....................             break; 
0072:  GOTO   073
....................       } 
....................    Portb=unidd; Porta=0b10010011; 
0073:  MOVF   23,W
0074:  MOVWF  06
0075:  MOVLW  93
0076:  MOVWF  05
....................    delay_ms(1); 
0077:  MOVLW  01
0078:  MOVWF  26
0079:  CALL   004
....................     
....................       switch(dece) 
....................       { 
007A:  MOVF   21,W
007B:  ADDLW  F5
007C:  BTFSC  03.0
007D:  GOTO   0A1
007E:  ADDLW  0B
007F:  GOTO   0E8
....................          case 0: 
....................             deced=disp[0]; 
0080:  MOVLW  3F
0081:  MOVWF  24
....................             break; 
0082:  GOTO   0A1
....................          case 1: 
....................             deced=disp[1]; 
0083:  MOVLW  06
0084:  MOVWF  24
....................             break; 
0085:  GOTO   0A1
....................          case 2: 
....................             deced=disp[2]; 
0086:  MOVLW  5B
0087:  MOVWF  24
....................             break; 
0088:  GOTO   0A1
....................          case 3: 
....................             deced=disp[3]; 
0089:  MOVLW  4F
008A:  MOVWF  24
....................             break;    
008B:  GOTO   0A1
....................          case 4: 
....................             deced=disp[4]; 
008C:  MOVLW  66
008D:  MOVWF  24
....................             break; 
008E:  GOTO   0A1
....................          case 5: 
....................             deced=disp[5]; 
008F:  MOVLW  6D
0090:  MOVWF  24
....................             break; 
0091:  GOTO   0A1
....................          case 6: 
....................             deced=disp[6]; 
0092:  MOVLW  7D
0093:  MOVWF  24
....................             break; 
0094:  GOTO   0A1
....................          case 7: 
....................             deced=disp[7]; 
0095:  MOVLW  07
0096:  MOVWF  24
....................             break; 
0097:  GOTO   0A1
....................          case 8: 
....................             deced=disp[8]; 
0098:  MOVLW  7F
0099:  MOVWF  24
....................             break; 
009A:  GOTO   0A1
....................          case 9: 
....................             deced=disp[9]; 
009B:  MOVLW  6F
009C:  MOVWF  24
....................             break; 
009D:  GOTO   0A1
....................          case 10: 
....................             cent++; dece=0; 
009E:  INCF   22,F
009F:  CLRF   21
....................             break; 
00A0:  GOTO   0A1
....................       } 
....................        
....................    Portb=deced; Porta=0b00001011; 
00A1:  MOVF   24,W
00A2:  MOVWF  06
00A3:  MOVLW  0B
00A4:  MOVWF  05
....................    delay_ms(1); 
00A5:  MOVLW  01
00A6:  MOVWF  26
00A7:  CALL   004
....................     
....................     switch(cent) 
....................       { 
00A8:  MOVF   22,W
00A9:  ADDLW  F5
00AA:  BTFSC  03.0
00AB:  GOTO   0D0
00AC:  ADDLW  0B
00AD:  GOTO   0F7
....................          case 0: 
....................             centd=disp[0]; 
00AE:  MOVLW  3F
00AF:  MOVWF  25
....................             break; 
00B0:  GOTO   0D0
....................          case 1: 
....................             centd=disp[1]; 
00B1:  MOVLW  06
00B2:  MOVWF  25
....................             break; 
00B3:  GOTO   0D0
....................          case 2: 
....................             centd=disp[2]; 
00B4:  MOVLW  5B
00B5:  MOVWF  25
....................             break; 
00B6:  GOTO   0D0
....................          case 3: 
....................             centd=disp[3]; 
00B7:  MOVLW  4F
00B8:  MOVWF  25
....................             break;    
00B9:  GOTO   0D0
....................          case 4: 
....................             centd=disp[4]; 
00BA:  MOVLW  66
00BB:  MOVWF  25
....................             break; 
00BC:  GOTO   0D0
....................          case 5: 
....................             centd=disp[5]; 
00BD:  MOVLW  6D
00BE:  MOVWF  25
....................             break; 
00BF:  GOTO   0D0
....................          case 6: 
....................             centd=disp[6]; 
00C0:  MOVLW  7D
00C1:  MOVWF  25
....................             break; 
00C2:  GOTO   0D0
....................          case 7: 
....................             centd=disp[7]; 
00C3:  MOVLW  07
00C4:  MOVWF  25
....................             break; 
00C5:  GOTO   0D0
....................          case 8: 
....................             centd=disp[8]; 
00C6:  MOVLW  7F
00C7:  MOVWF  25
....................             break; 
00C8:  GOTO   0D0
....................          case 9: 
....................             centd=disp[9]; 
00C9:  MOVLW  6F
00CA:  MOVWF  25
....................             break; 
00CB:  GOTO   0D0
....................          case 10: 
....................             cent=0; dece=0; unid=0; 
00CC:  CLRF   22
00CD:  CLRF   21
00CE:  CLRF   20
....................             break; 
00CF:  GOTO   0D0
....................       } 
....................     
....................    Portb=centd; Porta=0b00000111; 
00D0:  MOVF   25,W
00D1:  MOVWF  06
00D2:  MOVLW  07
00D3:  MOVWF  05
....................    delay_ms(1); 
00D4:  MOVLW  01
00D5:  MOVWF  26
00D6:  CALL   004
....................    } 
00D7:  GOTO   04B
.................... } 
....................  
.................... void condicion() 
.................... { 
00D8:  SLEEP
....................    if(input(pin_a1)==0) 
*
0019:  BSF    03.5
001A:  BSF    05.1
001B:  BCF    03.5
001C:  BTFSC  05.1
001D:  GOTO   02B
....................    { 
....................       while(input(pin_a1)==0){delay_ms(1);} 
001E:  BSF    03.5
001F:  BSF    05.1
0020:  BCF    03.5
0021:  BTFSC  05.1
0022:  GOTO   027
0023:  MOVLW  01
0024:  MOVWF  26
0025:  CALL   004
0026:  GOTO   01E
....................       delay_ms(20); 
0027:  MOVLW  14
0028:  MOVWF  26
0029:  CALL   004
....................       unid++; 
002A:  INCF   20,F
....................    } 
....................    if(input(pin_a0)==0) 
002B:  BSF    03.5
002C:  BSF    05.0
002D:  BCF    03.5
002E:  BTFSC  05.0
002F:  GOTO   033
....................    { 
....................       unid=0; 
0030:  CLRF   20
....................       dece=0; 
0031:  CLRF   21
....................       cent=0; 
0032:  CLRF   22
....................    } 
.................... } 
0033:  GOTO   04C (RETURN)
....................  

Configuration Fuses:
   Word  1: 3F19   NOWDT NOPUT INTRC NOMCLR NOBROWNOUT NOLVP NOCPD NOPROTECT
